target datalayout = "e-m:e-p270:32:32-p271:32:32-p272:64:64-i64:64-i128:128-f80:128-n8:16:32:64-S128"
target triple = "x86_64-pc-linux-gnu"

%"struct.std::atomic" = type { %"struct.std::__atomic_base" }
%"struct.std::__atomic_base" = type { i64 }
%"struct.boost::intrusive::list_node" = type { ptr, ptr }
%"struct.folly::fibers::SemaphoreBase::Waiter" = type { %"class.folly::fibers::Baton", %"class.boost::intrusive::list_member_hook", i64 }
%"class.folly::fibers::Baton" = type { %union.anon }
%union.anon = type { %"struct.std::atomic" }
%"class.boost::intrusive::list_member_hook" = type { %"class.boost::intrusive::generic_hook" }
%"class.boost::intrusive::generic_hook" = type { %"struct.boost::intrusive::list_node" }
%"class.folly::fibers::(anonymous namespace)::FutureWaiter" = type { %"class.folly::fibers::Baton::Waiter", %"struct.folly::fibers::SemaphoreBase::Waiter", %"class.folly::Promise" }
%"class.folly::fibers::Baton::Waiter" = type { ptr }
%"class.folly::Promise" = type { i8, ptr }

; Function Attrs: inlinehint mustprogress nounwind uwtable
define linkonce_odr void @_ZN5boost9intrusive6detail15destructor_implINS0_12generic_hookILNS0_10algo_typesE0ENS0_16list_node_traitsIPvEENS0_10member_tagELNS0_14link_mode_typeE1ELNS0_14base_hook_typeE0EEEEEvRT_NS1_13link_dispatchILS9_1EEE(ptr noundef nonnull align 8 dereferenceable(16) %0) #9 comdat {
  %2 = alloca ptr, align 8
  store ptr %0, ptr %2, align 8, !tbaa !124
  ret void
}

; Function Attrs: mustprogress nounwind uwtable
define linkonce_odr void @_ZN5folly7futures6detail8CoreBase12detachFutureEv(ptr noundef nonnull align 16 dereferenceable(136) %0) #3 comdat align 2 {
  %2 = alloca ptr, align 8
  store ptr %0, ptr %2, align 8, !tbaa !154
  %3 = load ptr, ptr %2, align 8
  call void @_ZN5folly7futures6detail8CoreBase9detachOneEv(ptr noundef nonnull align 16 dereferenceable(136) %3) #10
  ret void
}

; Function Attrs: inlinehint mustprogress nounwind uwtable
define linkonce_odr void @_ZN5boost9intrusive12generic_hookILNS0_10algo_typesE0ENS0_16list_node_traitsIPvEENS0_10member_tagELNS0_14link_mode_typeE1ELNS0_14base_hook_typeE0EED2Ev(ptr noundef nonnull align 8 dereferenceable(16) %0) unnamed_addr #9 comdat align 2 personality ptr @__gxx_personality_v0 {
  %2 = alloca ptr, align 8
  store ptr %0, ptr %2, align 8, !tbaa !124
  %3 = load ptr, ptr %2, align 8
  invoke void @_ZN5boost9intrusive6detail15destructor_implINS0_12generic_hookILNS0_10algo_typesE0ENS0_16list_node_traitsIPvEENS0_10member_tagELNS0_14link_mode_typeE1ELNS0_14base_hook_typeE0EEEEEvRT_NS1_13link_dispatchILS9_1EEE(ptr noundef nonnull align 8 dereferenceable(16) %3)
          to label %4 unwind label %5

4:                                                ; preds = %1
  ret void

5:                                                ; preds = %1
  %6 = landingpad { ptr, i32 }
          catch ptr null
  %7 = extractvalue { ptr, i32 } %6, 0
  call void @__clang_call_terminate(ptr %7) #23
  unreachable
}

; Function Attrs: mustprogress uwtable
define linkonce_odr void @_ZN5folly7PromiseINS_4UnitEE6detachEv(ptr noundef nonnull align 8 dereferenceable(16) %0) #0 comdat align 2 {
  %2 = alloca ptr, align 8
  store ptr %0, ptr %2, align 8, !tbaa !133
  %3 = load ptr, ptr %2, align 8
  %4 = getelementptr inbounds nuw %"class.folly::Promise", ptr %3, i32 0, i32 1
  %5 = load ptr, ptr %4, align 8, !tbaa !150
  %6 = icmp ne ptr %5, null
  br i1 %6, label %7, label %18

7:                                                ; preds = %1
  %8 = getelementptr inbounds nuw %"class.folly::Promise", ptr %3, i32 0, i32 0
  %9 = load i8, ptr %8, align 8, !tbaa !135, !range !52, !noundef !53
  %10 = trunc i8 %9 to i1
  br i1 %10, label %14, label %11

11:                                               ; preds = %7
  %12 = getelementptr inbounds nuw %"class.folly::Promise", ptr %3, i32 0, i32 1
  %13 = load ptr, ptr %12, align 8, !tbaa !150
  call void @_ZN5folly7futures6detail8CoreBase12detachFutureEv(ptr noundef nonnull align 16 dereferenceable(136) %13) #10
  br label %14

14:                                               ; preds = %11, %7
  %15 = getelementptr inbounds nuw %"class.folly::Promise", ptr %3, i32 0, i32 1
  %16 = load ptr, ptr %15, align 8, !tbaa !150
  call void @_ZN5folly7futures6detail32coreDetachPromiseMaybeWithResultINS_4UnitEEEvRNS1_4CoreIT_EE(ptr noundef nonnull align 16 dereferenceable(160) %16)
  %17 = getelementptr inbounds nuw %"class.folly::Promise", ptr %3, i32 0, i32 1
  store ptr null, ptr %17, align 8, !tbaa !150
  br label %18

18:                                               ; preds = %14, %1
  ret void
}

; Function Attrs: mustprogress nounwind uwtable
define linkonce_odr void @_ZN5folly6fibers5Baton6WaiterD2Ev(ptr noundef nonnull align 8 dereferenceable(8) %0) unnamed_addr #3 comdat align 2 {
  %2 = alloca ptr, align 8
  store ptr %0, ptr %2, align 8, !tbaa !148
  ret void
}

; Function Attrs: inlinehint mustprogress nounwind uwtable
define linkonce_odr void @_ZN5folly6fibers13SemaphoreBase6WaiterD2Ev(ptr noundef nonnull align 8 dereferenceable(32) %0) unnamed_addr #9 comdat align 2 {
  %2 = alloca ptr, align 8
  store ptr %0, ptr %2, align 8, !tbaa !14
  %3 = load ptr, ptr %2, align 8
  %4 = getelementptr inbounds nuw %"struct.folly::fibers::SemaphoreBase::Waiter", ptr %3, i32 0, i32 1
  call void @_ZN5boost9intrusive12generic_hookILNS0_10algo_typesE0ENS0_16list_node_traitsIPvEENS0_10member_tagELNS0_14link_mode_typeE1ELNS0_14base_hook_typeE0EED2Ev(ptr noundef nonnull align 8 dereferenceable(16) %4) #10
  ret void
}

; Function Attrs: mustprogress nounwind uwtable
define linkonce_odr void @_ZN5folly7PromiseINS_4UnitEED2Ev(ptr noundef nonnull align 8 dereferenceable(16) %0) unnamed_addr #3 comdat align 2 personality ptr @__gxx_personality_v0 {
  %2 = alloca ptr, align 8
  store ptr %0, ptr %2, align 8, !tbaa !133
  %3 = load ptr, ptr %2, align 8
  invoke void @_ZN5folly7PromiseINS_4UnitEE6detachEv(ptr noundef nonnull align 8 dereferenceable(16) %3)
          to label %4 unwind label %5

4:                                                ; preds = %1
  ret void

5:                                                ; preds = %1
  %6 = landingpad { ptr, i32 }
          catch ptr null
  %7 = extractvalue { ptr, i32 } %6, 0
  call void @__clang_call_terminate(ptr %7) #23
  unreachable
}

; Function Attrs: inlinehint mustprogress nounwind uwtable
define internal void @_ZN5folly6fibers12_GLOBAL__N_112FutureWaiterD2Ev(ptr noundef nonnull align 8 dereferenceable(56) %0) unnamed_addr #9 align 2 {
  %2 = alloca ptr, align 8
  store ptr %0, ptr %2, align 8, !tbaa !144
  %3 = load ptr, ptr %2, align 8
  %4 = getelementptr inbounds nuw %"class.folly::fibers::(anonymous namespace)::FutureWaiter", ptr %3, i32 0, i32 2
  call void @_ZN5folly7PromiseINS_4UnitEED2Ev(ptr noundef nonnull align 8 dereferenceable(16) %4) #10
  %5 = getelementptr inbounds nuw %"class.folly::fibers::(anonymous namespace)::FutureWaiter", ptr %3, i32 0, i32 1
  call void @_ZN5folly6fibers13SemaphoreBase6WaiterD2Ev(ptr noundef nonnull align 8 dereferenceable(32) %5) #10
  call void @_ZN5folly6fibers5Baton6WaiterD2Ev(ptr noundef nonnull align 8 dereferenceable(8) %3) #10
  ret void
}