; Function Attrs: inlinehint mustprogress nounwind uwtable
define internal void @_ZN5folly6fibers12_GLOBAL__N_112FutureWaiterD2Ev(ptr noundef nonnull align 8 captures(none) dereferenceable(56) %0) unnamed_addr #12 align 2 personality ptr @__gxx_personality_v0 {
  %2 = getelementptr inbounds nuw i8, ptr %0, i64 48
  %3 = load ptr, ptr %2, align 8, !tbaa !72
  %.not.i.i = icmp eq ptr %3, null
  br i1 %.not.i.i, label %_ZN5folly7PromiseINS_4UnitEED2Ev.exit, label %4

4:                                                ; preds = %1
  %5 = getelementptr inbounds nuw i8, ptr %0, i64 40
  %6 = load i8, ptr %5, align 8, !tbaa !56, !range !78, !noundef !79
  %7 = trunc nuw i8 %6 to i1
  br i1 %7, label %9, label %8

8:                                                ; preds = %4
  tail call void @_ZN5folly7futures6detail8CoreBase9detachOneEv(ptr noundef nonnull align 16 dereferenceable(136) %3) #5
  %.pre.i.i = load ptr, ptr %2, align 8, !tbaa !72
  br label %9

9:                                                ; preds = %8, %4
  %10 = phi ptr [ %.pre.i.i, %8 ], [ %3, %4 ]
  invoke void @_ZN5folly7futures6detail32coreDetachPromiseMaybeWithResultINS_4UnitEEEvRNS1_4CoreIT_EE(ptr noundef nonnull align 16 dereferenceable(160) %10)
          to label %.noexc.i unwind label %11

.noexc.i:                                         ; preds = %9
  store ptr null, ptr %2, align 8, !tbaa !72
  br label %_ZN5folly7PromiseINS_4UnitEED2Ev.exit

11:                                               ; preds = %9
  %12 = landingpad { ptr, i32 }
          catch ptr null
  %13 = extractvalue { ptr, i32 } %12, 0
  tail call void @__clang_call_terminate(ptr %13) #19
  unreachable

_ZN5folly7PromiseINS_4UnitEED2Ev.exit:            ; preds = %1, %.noexc.i
  ret void
}